; ModuleID = '63/1022.c'
source_filename = "63/1022.c"
target datalayout = "e-m:e-p270:32:32-p271:32:32-p272:64:64-i64:64-f80:128-n8:16:32:64-S128"
target triple = "x86_64-pc-linux-gnu"

@.str = private unnamed_addr constant [6 x i8] c"%d %d\00", align 1
@.str.1 = private unnamed_addr constant [3 x i8] c"%d\00", align 1
@.str.2 = private unnamed_addr constant [4 x i8] c"%d\0A\00", align 1
@.str.3 = private unnamed_addr constant [4 x i8] c"%d \00", align 1

; Function Attrs: noinline nounwind uwtable
define dso_local i32 @main() #0 {
  %1 = alloca i32, align 4
  %2 = alloca [1000 x [1000 x i32]], align 16
  %3 = alloca [1000 x [1000 x i32]], align 16
  %4 = alloca [1000 x [1000 x i32]], align 16
  %5 = alloca i32, align 4
  %6 = alloca i32, align 4
  %7 = alloca i32, align 4
  %8 = alloca i32, align 4
  %9 = alloca i32, align 4
  %10 = alloca i32, align 4
  %11 = alloca i32, align 4
  store i32 0, i32* %1, align 4
  store i32 0, i32* %9, align 4
  br label %12

12:                                               ; preds = %30, %0
  %13 = load i32, i32* %9, align 4
  %14 = icmp slt i32 %13, 1000
  br i1 %14, label %15, label %33

15:                                               ; preds = %12
  store i32 0, i32* %10, align 4
  br label %16

16:                                               ; preds = %26, %15
  %17 = load i32, i32* %10, align 4
  %18 = icmp slt i32 %17, 1000
  br i1 %18, label %19, label %29

19:                                               ; preds = %16
  %20 = load i32, i32* %9, align 4
  %21 = sext i32 %20 to i64
  %22 = getelementptr inbounds [1000 x [1000 x i32]], [1000 x [1000 x i32]]* %4, i64 0, i64 %21
  %23 = load i32, i32* %10, align 4
  %24 = sext i32 %23 to i64
  %25 = getelementptr inbounds [1000 x i32], [1000 x i32]* %22, i64 0, i64 %24
  store i32 0, i32* %25, align 4
  br label %26

26:                                               ; preds = %19
  %27 = load i32, i32* %10, align 4
  %28 = add nsw i32 %27, 1
  store i32 %28, i32* %10, align 4
  br label %16

29:                                               ; preds = %16
  br label %30

30:                                               ; preds = %29
  %31 = load i32, i32* %9, align 4
  %32 = add nsw i32 %31, 1
  store i32 %32, i32* %9, align 4
  br label %12

33:                                               ; preds = %12
  %34 = call i32 (i8*, ...) @__isoc99_scanf(i8* getelementptr inbounds ([6 x i8], [6 x i8]* @.str, i64 0, i64 0), i32* %5, i32* %6)
  store i32 0, i32* %9, align 4
  br label %35

35:                                               ; preds = %58, %33
  %36 = load i32, i32* %9, align 4
  %37 = load i32, i32* %5, align 4
  %38 = sub nsw i32 %37, 1
  %39 = icmp sle i32 %36, %38
  br i1 %39, label %40, label %61

40:                                               ; preds = %35
  store i32 0, i32* %10, align 4
  br label %41

41:                                               ; preds = %54, %40
  %42 = load i32, i32* %10, align 4
  %43 = load i32, i32* %6, align 4
  %44 = sub nsw i32 %43, 1
  %45 = icmp sle i32 %42, %44
  br i1 %45, label %46, label %57

46:                                               ; preds = %41
  %47 = load i32, i32* %9, align 4
  %48 = sext i32 %47 to i64
  %49 = getelementptr inbounds [1000 x [1000 x i32]], [1000 x [1000 x i32]]* %2, i64 0, i64 %48
  %50 = load i32, i32* %10, align 4
  %51 = sext i32 %50 to i64
  %52 = getelementptr inbounds [1000 x i32], [1000 x i32]* %49, i64 0, i64 %51
  %53 = call i32 (i8*, ...) @__isoc99_scanf(i8* getelementptr inbounds ([3 x i8], [3 x i8]* @.str.1, i64 0, i64 0), i32* %52)
  br label %54

54:                                               ; preds = %46
  %55 = load i32, i32* %10, align 4
  %56 = add nsw i32 %55, 1
  store i32 %56, i32* %10, align 4
  br label %41

57:                                               ; preds = %41
  br label %58

58:                                               ; preds = %57
  %59 = load i32, i32* %9, align 4
  %60 = add nsw i32 %59, 1
  store i32 %60, i32* %9, align 4
  br label %35

61:                                               ; preds = %35
  %62 = call i32 (i8*, ...) @__isoc99_scanf(i8* getelementptr inbounds ([6 x i8], [6 x i8]* @.str, i64 0, i64 0), i32* %7, i32* %8)
  store i32 0, i32* %9, align 4
  br label %63

63:                                               ; preds = %86, %61
  %64 = load i32, i32* %9, align 4
  %65 = load i32, i32* %7, align 4
  %66 = sub nsw i32 %65, 1
  %67 = icmp sle i32 %64, %66
  br i1 %67, label %68, label %89

68:                                               ; preds = %63
  store i32 0, i32* %10, align 4
  br label %69

69:                                               ; preds = %82, %68
  %70 = load i32, i32* %10, align 4
  %71 = load i32, i32* %8, align 4
  %72 = sub nsw i32 %71, 1
  %73 = icmp sle i32 %70, %72
  br i1 %73, label %74, label %85

74:                                               ; preds = %69
  %75 = load i32, i32* %9, align 4
  %76 = sext i32 %75 to i64
  %77 = getelementptr inbounds [1000 x [1000 x i32]], [1000 x [1000 x i32]]* %3, i64 0, i64 %76
  %78 = load i32, i32* %10, align 4
  %79 = sext i32 %78 to i64
  %80 = getelementptr inbounds [1000 x i32], [1000 x i32]* %77, i64 0, i64 %79
  %81 = call i32 (i8*, ...) @__isoc99_scanf(i8* getelementptr inbounds ([3 x i8], [3 x i8]* @.str.1, i64 0, i64 0), i32* %80)
  br label %82

82:                                               ; preds = %74
  %83 = load i32, i32* %10, align 4
  %84 = add nsw i32 %83, 1
  store i32 %84, i32* %10, align 4
  br label %69

85:                                               ; preds = %69
  br label %86

86:                                               ; preds = %85
  %87 = load i32, i32* %9, align 4
  %88 = add nsw i32 %87, 1
  store i32 %88, i32* %9, align 4
  br label %63

89:                                               ; preds = %63
  store i32 0, i32* %9, align 4
  br label %90

90:                                               ; preds = %207, %89
  %91 = load i32, i32* %9, align 4
  %92 = load i32, i32* %5, align 4
  %93 = sub nsw i32 %92, 1
  %94 = icmp sle i32 %91, %93
  br i1 %94, label %95, label %210

95:                                               ; preds = %90
  store i32 0, i32* %10, align 4
  br label %96

96:                                               ; preds = %203, %95
  %97 = load i32, i32* %10, align 4
  %98 = load i32, i32* %8, align 4
  %99 = sub nsw i32 %98, 1
  %100 = icmp sle i32 %97, %99
  br i1 %100, label %101, label %206

101:                                              ; preds = %96
  %102 = load i32, i32* %10, align 4
  %103 = load i32, i32* %8, align 4
  %104 = sub nsw i32 %103, 1
  %105 = icmp eq i32 %102, %104
  br i1 %105, label %106, label %154

106:                                              ; preds = %101
  store i32 0, i32* %11, align 4
  br label %107

107:                                              ; preds = %142, %106
  %108 = load i32, i32* %11, align 4
  %109 = load i32, i32* %7, align 4
  %110 = sub nsw i32 %109, 1
  %111 = icmp sle i32 %108, %110
  br i1 %111, label %112, label %145

112:                                              ; preds = %107
  %113 = load i32, i32* %9, align 4
  %114 = sext i32 %113 to i64
  %115 = getelementptr inbounds [1000 x [1000 x i32]], [1000 x [1000 x i32]]* %4, i64 0, i64 %114
  %116 = load i32, i32* %10, align 4
  %117 = sext i32 %116 to i64
  %118 = getelementptr inbounds [1000 x i32], [1000 x i32]* %115, i64 0, i64 %117
  %119 = load i32, i32* %118, align 4
  %120 = load i32, i32* %9, align 4
  %121 = sext i32 %120 to i64
  %122 = getelementptr inbounds [1000 x [1000 x i32]], [1000 x [1000 x i32]]* %2, i64 0, i64 %121
  %123 = load i32, i32* %11, align 4
  %124 = sext i32 %123 to i64
  %125 = getelementptr inbounds [1000 x i32], [1000 x i32]* %122, i64 0, i64 %124
  %126 = load i32, i32* %125, align 4
  %127 = load i32, i32* %11, align 4
  %128 = sext i32 %127 to i64
  %129 = getelementptr inbounds [1000 x [1000 x i32]], [1000 x [1000 x i32]]* %3, i64 0, i64 %128
  %130 = load i32, i32* %10, align 4
  %131 = sext i32 %130 to i64
  %132 = getelementptr inbounds [1000 x i32], [1000 x i32]* %129, i64 0, i64 %131
  %133 = load i32, i32* %132, align 4
  %134 = mul nsw i32 %126, %133
  %135 = add nsw i32 %119, %134
  %136 = load i32, i32* %9, align 4
  %137 = sext i32 %136 to i64
  %138 = getelementptr inbounds [1000 x [1000 x i32]], [1000 x [1000 x i32]]* %4, i64 0, i64 %137
  %139 = load i32, i32* %10, align 4
  %140 = sext i32 %139 to i64
  %141 = getelementptr inbounds [1000 x i32], [1000 x i32]* %138, i64 0, i64 %140
  store i32 %135, i32* %141, align 4
  br label %142

142:                                              ; preds = %112
  %143 = load i32, i32* %11, align 4
  %144 = add nsw i32 %143, 1
  store i32 %144, i32* %11, align 4
  br label %107

145:                                              ; preds = %107
  %146 = load i32, i32* %9, align 4
  %147 = sext i32 %146 to i64
  %148 = getelementptr inbounds [1000 x [1000 x i32]], [1000 x [1000 x i32]]* %4, i64 0, i64 %147
  %149 = load i32, i32* %10, align 4
  %150 = sext i32 %149 to i64
  %151 = getelementptr inbounds [1000 x i32], [1000 x i32]* %148, i64 0, i64 %150
  %152 = load i32, i32* %151, align 4
  %153 = call i32 (i8*, ...) @printf(i8* getelementptr inbounds ([4 x i8], [4 x i8]* @.str.2, i64 0, i64 0), i32 %152)
  br label %202

154:                                              ; preds = %101
  store i32 0, i32* %11, align 4
  br label %155

155:                                              ; preds = %190, %154
  %156 = load i32, i32* %11, align 4
  %157 = load i32, i32* %7, align 4
  %158 = sub nsw i32 %157, 1
  %159 = icmp sle i32 %156, %158
  br i1 %159, label %160, label %193

160:                                              ; preds = %155
  %161 = load i32, i32* %9, align 4
  %162 = sext i32 %161 to i64
  %163 = getelementptr inbounds [1000 x [1000 x i32]], [1000 x [1000 x i32]]* %4, i64 0, i64 %162
  %164 = load i32, i32* %10, align 4
  %165 = sext i32 %164 to i64
  %166 = getelementptr inbounds [1000 x i32], [1000 x i32]* %163, i64 0, i64 %165
  %167 = load i32, i32* %166, align 4
  %168 = load i32, i32* %9, align 4
  %169 = sext i32 %168 to i64
  %170 = getelementptr inbounds [1000 x [1000 x i32]], [1000 x [1000 x i32]]* %2, i64 0, i64 %169
  %171 = load i32, i32* %11, align 4
  %172 = sext i32 %171 to i64
  %173 = getelementptr inbounds [1000 x i32], [1000 x i32]* %170, i64 0, i64 %172
  %174 = load i32, i32* %173, align 4
  %175 = load i32, i32* %11, align 4
  %176 = sext i32 %175 to i64
  %177 = getelementptr inbounds [1000 x [1000 x i32]], [1000 x [1000 x i32]]* %3, i64 0, i64 %176
  %178 = load i32, i32* %10, align 4
  %179 = sext i32 %178 to i64
  %180 = getelementptr inbounds [1000 x i32], [1000 x i32]* %177, i64 0, i64 %179
  %181 = load i32, i32* %180, align 4
  %182 = mul nsw i32 %174, %181
  %183 = add nsw i32 %167, %182
  %184 = load i32, i32* %9, align 4
  %185 = sext i32 %184 to i64
  %186 = getelementptr inbounds [1000 x [1000 x i32]], [1000 x [1000 x i32]]* %4, i64 0, i64 %185
  %187 = load i32, i32* %10, align 4
  %188 = sext i32 %187 to i64
  %189 = getelementptr inbounds [1000 x i32], [1000 x i32]* %186, i64 0, i64 %188
  store i32 %183, i32* %189, align 4
  br label %190

190:                                              ; preds = %160
  %191 = load i32, i32* %11, align 4
  %192 = add nsw i32 %191, 1
  store i32 %192, i32* %11, align 4
  br label %155

193:                                              ; preds = %155
  %194 = load i32, i32* %9, align 4
  %195 = sext i32 %194 to i64
  %196 = getelementptr inbounds [1000 x [1000 x i32]], [1000 x [1000 x i32]]* %4, i64 0, i64 %195
  %197 = load i32, i32* %10, align 4
  %198 = sext i32 %197 to i64
  %199 = getelementptr inbounds [1000 x i32], [1000 x i32]* %196, i64 0, i64 %198
  %200 = load i32, i32* %199, align 4
  %201 = call i32 (i8*, ...) @printf(i8* getelementptr inbounds ([4 x i8], [4 x i8]* @.str.3, i64 0, i64 0), i32 %200)
  br label %202

202:                                              ; preds = %193, %145
  br label %203

203:                                              ; preds = %202
  %204 = load i32, i32* %10, align 4
  %205 = add nsw i32 %204, 1
  store i32 %205, i32* %10, align 4
  br label %96

206:                                              ; preds = %96
  br label %207

207:                                              ; preds = %206
  %208 = load i32, i32* %9, align 4
  %209 = add nsw i32 %208, 1
  store i32 %209, i32* %9, align 4
  br label %90

210:                                              ; preds = %90
  %211 = load i32, i32* %1, align 4
  ret i32 %211
}

declare dso_local i32 @__isoc99_scanf(i8*, ...) #1

declare dso_local i32 @printf(i8*, ...) #1


!llvm.module.flags = !{!0}
!llvm.ident = !{!1}

!0 = !{i32 1, !"wchar_size", i32 4}
!1 = !{!"clang version 10.0.0-4ubuntu1 "}
